target datalayout = "e-m:e-p270:32:32-p271:32:32-p272:64:64-i64:64-i128:128-f80:128-n8:16:32:64-S128"
target triple = "x86_64-pc-linux-gnu"

%struct.Ver_Man_t_ = type { i32, i32, i32, ptr, ptr, i32, ptr, ptr, ptr, ptr, i32, i32, [2000 x i8], ptr, ptr, ptr, ptr }
%struct.Abc_Ntk_t_ = type { i32, i32, ptr, ptr, ptr, ptr, ptr, ptr, ptr, ptr, ptr, ptr, ptr, [11 x i32], i32, i32, i32, i32, ptr, i32, ptr, ptr, i32, i32, i32, double, i32, %struct.Vec_Int_t_, ptr, ptr, ptr, ptr, ptr, float, i32, ptr, ptr, ptr, ptr, ptr, ptr, ptr, ptr, ptr, ptr, ptr, ptr, ptr, ptr, ptr, ptr, ptr, ptr, ptr, ptr, ptr, ptr }
%struct.Vec_Int_t_ = type { i32, i32, ptr }

; Function Attrs: nounwind uwtable
define ptr @Ver_ParseFindOrCreateNetwork(ptr noundef %0, ptr noundef %1) #0 {
  %3 = alloca ptr, align 8
  %4 = alloca ptr, align 8
  %5 = alloca ptr, align 8
  %6 = alloca ptr, align 8
  %7 = alloca i32, align 4
  store ptr %0, ptr %4, align 8, !tbaa !12
  store ptr %1, ptr %5, align 8, !tbaa !3
  call void @llvm.lifetime.start.p0(i64 8, ptr %6) #10
  %8 = load ptr, ptr %4, align 8, !tbaa !12
  %9 = getelementptr inbounds nuw %struct.Ver_Man_t_, ptr %8, i32 0, i32 7
  %10 = load ptr, ptr %9, align 8, !tbaa !24
  %11 = load ptr, ptr %5, align 8, !tbaa !3
  %12 = call ptr @Abc_DesFindModelByName(ptr noundef %10, ptr noundef %11)
  store ptr %12, ptr %6, align 8, !tbaa !39
  %13 = icmp ne ptr %12, null
  br i1 %13, label %14, label %16

14:                                               ; preds = %2
  %15 = load ptr, ptr %6, align 8, !tbaa !39
  store ptr %15, ptr %3, align 8
  store i32 1, ptr %7, align 4
  br label %33

16:                                               ; preds = %2
  %17 = load ptr, ptr %4, align 8, !tbaa !12
  %18 = getelementptr inbounds nuw %struct.Ver_Man_t_, ptr %17, i32 0, i32 1
  %19 = load i32, ptr %18, align 4, !tbaa !23
  %20 = call ptr @Abc_NtkAlloc(i32 noundef 1, i32 noundef 6, i32 noundef %19)
  store ptr %20, ptr %6, align 8, !tbaa !39
  %21 = load ptr, ptr %5, align 8, !tbaa !3
  %22 = call ptr @Extra_UtilStrsav(ptr noundef %21)
  %23 = load ptr, ptr %6, align 8, !tbaa !39
  %24 = getelementptr inbounds nuw %struct.Abc_Ntk_t_, ptr %23, i32 0, i32 2
  store ptr %22, ptr %24, align 8, !tbaa !42
  %25 = load ptr, ptr %6, align 8, !tbaa !39
  %26 = getelementptr inbounds nuw %struct.Abc_Ntk_t_, ptr %25, i32 0, i32 3
  store ptr null, ptr %26, align 8, !tbaa !57
  %27 = load ptr, ptr %4, align 8, !tbaa !12
  %28 = getelementptr inbounds nuw %struct.Ver_Man_t_, ptr %27, i32 0, i32 7
  %29 = load ptr, ptr %28, align 8, !tbaa !24
  %30 = load ptr, ptr %6, align 8, !tbaa !39
  %31 = call i32 @Abc_DesAddModel(ptr noundef %29, ptr noundef %30)
  %32 = load ptr, ptr %6, align 8, !tbaa !39
  store ptr %32, ptr %3, align 8
  store i32 1, ptr %7, align 4
  br label %33

33:                                               ; preds = %16, %14
  call void @llvm.lifetime.end.p0(i64 8, ptr %6) #10
  %34 = load ptr, ptr %3, align 8
  ret ptr %34
}