; Function Attrs: nounwind uwtable
define ptr @Ver_ParseFindOrCreateNetwork(ptr noundef readonly captures(none) %0, ptr noundef %1) local_unnamed_addr #0 {
  %3 = getelementptr inbounds nuw i8, ptr %0, i64 48
  %4 = load ptr, ptr %3, align 8, !tbaa !33
  %5 = tail call ptr @Abc_DesFindModelByName(ptr noundef %4, ptr noundef %1) #20
  %.not = icmp eq ptr %5, null
  br i1 %.not, label %6, label %15

6:                                                ; preds = %2
  %7 = getelementptr inbounds nuw i8, ptr %0, i64 4
  %8 = load i32, ptr %7, align 4, !tbaa !40
  %9 = tail call ptr @Abc_NtkAlloc(i32 noundef 1, i32 noundef 6, i32 noundef %8) #20
  %10 = tail call ptr @Extra_UtilStrsav(ptr noundef %1) #20
  %11 = getelementptr inbounds nuw i8, ptr %9, i64 8
  store ptr %10, ptr %11, align 8, !tbaa !45
  %12 = getelementptr inbounds nuw i8, ptr %9, i64 16
  store ptr null, ptr %12, align 8, !tbaa !56
  %13 = load ptr, ptr %3, align 8, !tbaa !33
  %14 = tail call i32 @Abc_DesAddModel(ptr noundef %13, ptr noundef %9) #20
  br label %15

15:                                               ; preds = %2, %6
  %.0 = phi ptr [ %9, %6 ], [ %5, %2 ]
  ret ptr %.0
}